; Function Attrs: nounwind sspstrong uwtable
define internal i64 @ossl_cipher_final(i64 noundef %0) #0 {
  %2 = alloca i32, align 4
  call void @llvm.lifetime.start.p0(i64 4, ptr nonnull %2) #11
  %3 = tail call ptr @rb_check_typeddata(i64 noundef %0, ptr noundef nonnull @ossl_cipher_type) #11
  %.not = icmp eq ptr %3, null
  br i1 %.not, label %4, label %6

4:                                                ; preds = %1
  %5 = load i64, ptr @rb_eRuntimeError, align 8, !tbaa !6
  tail call void (i64, ptr, ...) @ossl_raise(i64 noundef %5, ptr noundef nonnull @.str) #12
  unreachable

6:                                                ; preds = %1
  %7 = tail call i32 @EVP_CIPHER_CTX_get_block_size(ptr noundef nonnull %3) #11
  %8 = sext i32 %7 to i64
  %9 = tail call i64 @rb_str_new(ptr noundef null, i64 noundef %8) #11
  %10 = inttoptr i64 %9 to ptr
  %11 = load i64, ptr %10, align 8, !tbaa !10, !noalias !42
  %12 = and i64 %11, 8192
  %.not.i.i = icmp eq i64 %12, 0
  %13 = getelementptr inbounds nuw i8, ptr %10, i64 24
  br i1 %.not.i.i, label %RSTRING_PTR.exit, label %14

14:                                               ; preds = %6
  %.sroa.2.0.copyload.i = load ptr, ptr %13, align 8
  br label %RSTRING_PTR.exit

RSTRING_PTR.exit:                                 ; preds = %6, %14
  %.sroa.2.0.i = phi ptr [ %.sroa.2.0.copyload.i, %14 ], [ %13, %6 ]
  %15 = call i32 @EVP_CipherFinal_ex(ptr noundef nonnull %3, ptr noundef %.sroa.2.0.i, ptr noundef nonnull %2) #11
  %.not6 = icmp eq i32 %15, 0
  br i1 %.not6, label %16, label %18

16:                                               ; preds = %RSTRING_PTR.exit
  %17 = load i64, ptr @eCipherError, align 8, !tbaa !6
  call void (i64, ptr, ...) @ossl_raise(i64 noundef %17, ptr noundef null) #12
  unreachable

18:                                               ; preds = %RSTRING_PTR.exit
  %19 = load i32, ptr %2, align 4, !tbaa !45
  %20 = sext i32 %19 to i64
  call void @rb_str_set_len(i64 noundef %9, i64 noundef %20) #11
  call void @llvm.lifetime.end.p0(i64 4, ptr nonnull %2) #11
  ret i64 %9
}